target datalayout = "e-m:e-p270:32:32-p271:32:32-p272:64:64-i64:64-i128:128-f80:128-n8:16:32:64-S128"
target triple = "x86_64-pc-linux-gnu"

; Function Attrs: nounwind uwtable
define internal void @_show_iter_on_view(ptr noundef %0, ptr noundef %1, i32 noundef %2) #0 {
  %4 = alloca ptr, align 8
  %5 = alloca ptr, align 8
  %6 = alloca i32, align 4
  %7 = alloca ptr, align 8
  %8 = alloca ptr, align 8
  %9 = alloca ptr, align 8
  store ptr %0, ptr %4, align 8, !tbaa !35
  store ptr %1, ptr %5, align 8, !tbaa !134
  store i32 %2, ptr %6, align 4, !tbaa !31
  call void @llvm.lifetime.start.p0(i64 8, ptr %7) #11
  %10 = load ptr, ptr %4, align 8, !tbaa !35
  %11 = call ptr @gtk_tree_view_get_model(ptr noundef %10)
  store ptr %11, ptr %7, align 8, !tbaa !36
  call void @llvm.lifetime.start.p0(i64 8, ptr %8) #11
  %12 = load ptr, ptr %7, align 8, !tbaa !36
  %13 = load ptr, ptr %5, align 8, !tbaa !134
  %14 = call ptr @gtk_tree_model_get_path(ptr noundef %12, ptr noundef %13)
  store ptr %14, ptr %8, align 8, !tbaa !138
  %15 = load ptr, ptr %4, align 8, !tbaa !35
  %16 = load ptr, ptr %8, align 8, !tbaa !138
  call void @gtk_tree_view_expand_to_path(ptr noundef %15, ptr noundef %16)
  %17 = load ptr, ptr %4, align 8, !tbaa !35
  %18 = load ptr, ptr %8, align 8, !tbaa !138
  call void @gtk_tree_view_scroll_to_cell(ptr noundef %17, ptr noundef %18, ptr noundef null, i32 noundef 1, float noundef 5.000000e-01, float noundef 5.000000e-01)
  %19 = load ptr, ptr %8, align 8, !tbaa !138
  call void @gtk_tree_path_free(ptr noundef %19)
  %20 = load i32, ptr %6, align 4, !tbaa !31
  %21 = icmp ne i32 %20, 0
  br i1 %21, label %22, label %27

22:                                               ; preds = %3
  call void @llvm.lifetime.start.p0(i64 8, ptr %9) #11
  %23 = load ptr, ptr %4, align 8, !tbaa !35
  %24 = call ptr @gtk_tree_view_get_selection(ptr noundef %23)
  store ptr %24, ptr %9, align 8, !tbaa !59
  %25 = load ptr, ptr %9, align 8, !tbaa !59
  %26 = load ptr, ptr %5, align 8, !tbaa !134
  call void @gtk_tree_selection_select_iter(ptr noundef %25, ptr noundef %26)
  call void @llvm.lifetime.end.p0(i64 8, ptr %9) #11
  br label %27

27:                                               ; preds = %22, %3
  call void @llvm.lifetime.end.p0(i64 8, ptr %8) #11
  call void @llvm.lifetime.end.p0(i64 8, ptr %7) #11
  ret void
}