; Function Attrs: nounwind uwtable
define internal fastcc void @_show_iter_on_view(ptr noundef %0, ptr noundef nonnull %1, i32 noundef range(i32 0, 2) %2) unnamed_addr #1 {
  %4 = tail call ptr @gtk_tree_view_get_model(ptr noundef %0) #16
  %5 = tail call ptr @gtk_tree_model_get_path(ptr noundef %4, ptr noundef nonnull %1) #16
  tail call void @gtk_tree_view_expand_to_path(ptr noundef %0, ptr noundef %5) #16
  tail call void @gtk_tree_view_scroll_to_cell(ptr noundef %0, ptr noundef %5, ptr noundef null, i32 noundef 1, float noundef 5.000000e-01, float noundef 5.000000e-01) #16
  tail call void @gtk_tree_path_free(ptr noundef %5) #16
  %.not = icmp eq i32 %2, 0
  br i1 %.not, label %8, label %6

6:                                                ; preds = %3
  %7 = tail call ptr @gtk_tree_view_get_selection(ptr noundef %0) #16
  tail call void @gtk_tree_selection_select_iter(ptr noundef %7, ptr noundef nonnull %1) #16
  br label %8

8:                                                ; preds = %6, %3
  ret void
}